; Function Attrs: mustprogress uwtable
define void @_ZN4cvc58internal6parser11SymbolTable14Implementation8popScopeEv(ptr noundef nonnull align 8 dereferenceable(416) %this) local_unnamed_addr #3 align 2 personality ptr @__gxx_personality_v0 {
entry:
  %call = tail call noundef i32 @_ZNK4cvc57context7Context8getLevelEv(ptr noundef nonnull align 8 dereferenceable(48) %this)
  %cmp = icmp eq i32 %call, 0
  br i1 %cmp, label %if.then, label %if.end

if.then:                                          ; preds = %entry
  %exception = tail call ptr @__cxa_allocate_exception(i64 40) #19
  tail call void @llvm.memset.p0.i64(ptr noundef nonnull align 16 dereferenceable(40) %exception, i8 0, i64 40, i1 false)
  invoke void @_ZN4cvc58internal6parser14ScopeExceptionC2Ev(ptr noundef nonnull align 8 dereferenceable(40) %exception)
          to label %invoke.cont unwind label %lpad

invoke.cont:                                      ; preds = %if.then
  tail call void @__cxa_throw(ptr nonnull %exception, ptr nonnull @_ZTIN4cvc58internal6parser14ScopeExceptionE, ptr nonnull @_ZN4cvc58internal6parser14ScopeExceptionD2Ev) #23
  unreachable

lpad:                                             ; preds = %if.then
  %0 = landingpad { ptr, i32 }
          cleanup
  tail call void @__cxa_free_exception(ptr nonnull %exception) #19
  resume { ptr, i32 } %0

if.end:                                           ; preds = %entry
  tail call void @_ZN4cvc57context7Context3popEv(ptr noundef nonnull align 8 dereferenceable(48) %this)
  ret void
}